((lp1
(lp2
I76
aI170
aa(lp3
I166
aI176
aa(lp4
I230
aI166
aa(lp5
I234
aI270
aa(lp6
I306
aI228
aa(lp7
I374
aI286
aa(lp8
I394
aI238
aa(lp9
(lp10
I238
aI162
aa(lp11
I322
aI166
aa(lp12
I374
aI156
aa(lp13
I384
aI258
aa(lp14
I446
aI218
aa(lp15
I540
aI278
aa(lp16
I550
aI236
aat.